; Function Attrs: mustprogress uwtable
define hidden void @_ZN7bit2intC2ER11ast_manager(ptr noundef nonnull align 8 dereferenceable(296) initializes((0, 8)) %0, ptr noundef nonnull align 8 dereferenceable(976) %1) unnamed_addr #3 align 2 personality ptr @__gxx_personality_v0 {
  %3 = alloca %class.params_ref, align 8
  store ptr %1, ptr %0, align 8, !tbaa !3
  %4 = getelementptr inbounds nuw i8, ptr %0, i64 8
  tail call void @_ZN7bv_utilC1ER11ast_manager(ptr noundef nonnull align 8 dereferenceable(24) %4, ptr noundef nonnull align 8 dereferenceable(976) %1)
  %5 = getelementptr inbounds nuw i8, ptr %0, i64 32
  call void @llvm.lifetime.start.p0(i64 8, ptr nonnull %3) #19
  store ptr null, ptr %3, align 8, !tbaa !8
  invoke void @_ZN11bv_rewriterC2ER11ast_managerRK10params_ref(ptr noundef nonnull align 8 dereferenceable(157) %5, ptr noundef nonnull align 8 dereferenceable(976) %1, ptr noundef nonnull align 8 dereferenceable(8) %3)
          to label %6 unwind label %29

6:                                                ; preds = %2
  call void @_ZN10params_refD1Ev(ptr noundef nonnull align 8 dereferenceable(8) %3) #19
  call void @llvm.lifetime.end.p0(i64 8, ptr nonnull %3) #19
  %7 = getelementptr inbounds nuw i8, ptr %0, i64 192
  invoke void @_ZN10arith_utilC1ER11ast_manager(ptr noundef nonnull align 8 dereferenceable(16) %7, ptr noundef nonnull align 8 dereferenceable(976) %1)
          to label %8 unwind label %31

8:                                                ; preds = %6
  %9 = getelementptr inbounds nuw i8, ptr %0, i64 208
  invoke void @_ZN8expr_mapC1ER11ast_managerb(ptr noundef nonnull align 8 dereferenceable(64) %9, ptr noundef nonnull align 8 dereferenceable(976) %1, i1 noundef zeroext false)
          to label %10 unwind label %31

10:                                               ; preds = %8
  %11 = getelementptr inbounds nuw i8, ptr %0, i64 272
  store ptr null, ptr %11, align 8, !tbaa !11
  %12 = getelementptr inbounds nuw i8, ptr %0, i64 280
  store ptr %1, ptr %12, align 8, !tbaa !3
  %13 = getelementptr inbounds nuw i8, ptr %0, i64 288
  store ptr null, ptr %13, align 8, !tbaa !14
  %14 = invoke noundef ptr @_ZNK7bv_util10mk_numeralEmj(ptr noundef nonnull align 8 dereferenceable(24) %4, i64 noundef 0, i32 noundef 1)
          to label %15 unwind label %33

15:                                               ; preds = %10
  %.not.i = icmp eq ptr %14, null
  br i1 %.not.i, label %19, label %_ZN11ast_manager7inc_refEP3ast.exit.i

_ZN11ast_manager7inc_refEP3ast.exit.i:            ; preds = %15
  %16 = getelementptr inbounds nuw i8, ptr %14, i64 8
  %17 = load i32, ptr %16, align 4, !tbaa !18
  %18 = add i32 %17, 1
  store i32 %18, ptr %16, align 4, !tbaa !18
  br label %19

19:                                               ; preds = %_ZN11ast_manager7inc_refEP3ast.exit.i, %15
  %20 = load ptr, ptr %11, align 8, !tbaa !11
  %.not.i4.i = icmp eq ptr %20, null
  br i1 %.not.i4.i, label %28, label %21

21:                                               ; preds = %19
  %22 = load ptr, ptr %12, align 8, !tbaa !21
  %23 = getelementptr inbounds nuw i8, ptr %20, i64 8
  %24 = load i32, ptr %23, align 4, !tbaa !18
  %25 = add i32 %24, -1
  store i32 %25, ptr %23, align 4, !tbaa !18
  %26 = icmp eq i32 %25, 0
  br i1 %26, label %27, label %28

27:                                               ; preds = %21
  invoke void @_ZN11ast_manager11delete_nodeEP3ast(ptr noundef nonnull align 8 dereferenceable(976) %22, ptr noundef nonnull %20)
          to label %28 unwind label %33

28:                                               ; preds = %21, %19, %27
  store ptr %14, ptr %11, align 8, !tbaa !11
  ret void

29:                                               ; preds = %2
  %30 = landingpad { ptr, i32 }
          cleanup
  call void @_ZN10params_refD1Ev(ptr noundef nonnull align 8 dereferenceable(8) %3) #19
  call void @llvm.lifetime.end.p0(i64 8, ptr nonnull %3) #19
  br label %36

31:                                               ; preds = %8, %6
  %32 = landingpad { ptr, i32 }
          cleanup
  br label %35

33:                                               ; preds = %27, %10
  %34 = landingpad { ptr, i32 }
          cleanup
  call void @_ZN6vectorIP4exprLb0EjED2Ev(ptr noundef nonnull align 8 dereferenceable(8) %13) #19
  call void @_ZN7obj_refI4expr11ast_managerED2Ev(ptr noundef nonnull align 8 dereferenceable(16) %11) #19
  call void @_ZN8expr_mapD1Ev(ptr noundef nonnull align 8 dereferenceable(64) %9) #19
  br label %35

35:                                               ; preds = %33, %31
  %.pn = phi { ptr, i32 } [ %34, %33 ], [ %32, %31 ]
  call void @_ZN11bv_rewriterD2Ev(ptr noundef nonnull align 8 dereferenceable(157) %5) #19
  br label %36

36:                                               ; preds = %35, %29
  %.pn.pn = phi { ptr, i32 } [ %.pn, %35 ], [ %30, %29 ]
  resume { ptr, i32 } %.pn.pn
}